; Function Attrs: mustprogress nofree norecurse nosync nounwind memory(write, argmem: readwrite, inaccessiblemem: none) uwtable
define void @_ZN17gmx_grppairener_t5clearEv(ptr nocapture noundef nonnull readonly align 8 dereferenceable(128) %0) local_unnamed_addr #13 align 2 {
  %2 = getelementptr inbounds i8, ptr %0, i64 8
  %3 = load i32, ptr %0, align 8
  %4 = icmp sgt i32 %3, 0
  br i1 %4, label %.preheader, label %.split10.us

.preheader:                                       ; preds = %1, %._crit_edge
  %5 = phi i32 [ %14, %._crit_edge ], [ %3, %1 ]
  %indvars.iv13 = phi i64 [ %indvars.iv.next14, %._crit_edge ], [ 0, %1 ]
  %6 = icmp sgt i32 %5, 0
  br i1 %6, label %.lr.ph, label %._crit_edge

.lr.ph:                                           ; preds = %.preheader
  %7 = getelementptr inbounds [5 x %"class.std::vector.14"], ptr %2, i64 0, i64 %indvars.iv13
  br label %8

8:                                                ; preds = %.lr.ph, %8
  %indvars.iv = phi i64 [ 0, %.lr.ph ], [ %indvars.iv.next, %8 ]
  %9 = load ptr, ptr %7, align 8
  %10 = getelementptr inbounds float, ptr %9, i64 %indvars.iv
  store float 0.000000e+00, ptr %10, align 4
  %indvars.iv.next = add nuw nsw i64 %indvars.iv, 1
  %11 = load i32, ptr %0, align 8
  %12 = sext i32 %11 to i64
  %13 = icmp slt i64 %indvars.iv.next, %12
  br i1 %13, label %8, label %._crit_edge, !llvm.loop !15

._crit_edge:                                      ; preds = %8, %.preheader
  %14 = phi i32 [ %5, %.preheader ], [ %11, %8 ]
  %indvars.iv.next14 = add nuw nsw i64 %indvars.iv13, 1
  %exitcond.not = icmp eq i64 %indvars.iv.next14, 5
  br i1 %exitcond.not, label %.split10.us, label %.preheader, !llvm.loop !16

.split10.us:                                      ; preds = %._crit_edge, %1
  ret void
}